; Function Attrs: mustprogress nounwind uwtable
define hidden void @_ZN19ctx_simplify_tacticD2Ev(ptr noundef nonnull align 8 dereferenceable(32) initializes((0, 8)) %0) unnamed_addr #6 align 2 personality ptr @__gxx_personality_v0 {
  store ptr getelementptr inbounds nuw inrange(-16, 192) (i8, ptr @_ZTV19ctx_simplify_tactic, i64 16), ptr %0, align 8, !tbaa !3
  %2 = getelementptr inbounds nuw i8, ptr %0, i64 16
  %3 = load ptr, ptr %2, align 8, !tbaa !86
  %4 = icmp eq ptr %3, null
  br i1 %4, label %_Z7deallocIN19ctx_simplify_tactic3impEEvPT_.exit, label %5

5:                                                ; preds = %1
  tail call void @_ZN19ctx_simplify_tactic3impD2Ev(ptr noundef nonnull align 8 dereferenceable(641) %3) #19
  invoke void @_ZN6memory10deallocateEPv(ptr noundef nonnull %3)
          to label %_Z7deallocIN19ctx_simplify_tactic3impEEvPT_.exit unwind label %7

_Z7deallocIN19ctx_simplify_tactic3impEEvPT_.exit: ; preds = %1, %5
  %6 = getelementptr inbounds nuw i8, ptr %0, i64 24
  tail call void @_ZN10params_refD1Ev(ptr noundef nonnull align 8 dereferenceable(8) %6) #19
  ret void

7:                                                ; preds = %5
  %8 = landingpad { ptr, i32 }
          catch ptr null
  %9 = extractvalue { ptr, i32 } %8, 0
  tail call void @__clang_call_terminate(ptr %9) #20
  unreachable
}